Certificate Request:
    Data:
        Version: 0 (0x0)
        Subject: C=FR, O=NodeOPCUA, CN=NodeOPCUA
        Subject Public Key Info:
            Public Key Algorithm: rsaEncryption
            RSA Public Key: (1024 bit)
                Modulus (1024 bit):
                    00:ba:31:09:3d:cc:1b:2c:2c:50:44:4c:1e:ad:76:
                    14:8d:2f:10:fe:7e:ab:26:bf:2f:df:8d:89:b2:2e:
                    40:bd:a1:b0:84:0f:98:03:f0:dd:db:c9:2c:92:96:
                    b6:7c:35:b1:4d:09:f8:3e:95:fa:a1:3f:ee:e3:23:
                    1d:4e:9e:a0:cd:bc:db:4a:62:75:8f:e7:89:bb:85:
                    36:91:43:bf:c9:6d:2a:87:9a:5d:28:7c:23:95:73:
                    f4:08:61:81:f1:60:db:f6:05:e1:9f:6a:0c:07:55:
                    d0:c4:b4:c4:14:21:7f:f3:79:d0:fc:ce:42:db:6a:
                    79:40:a9:c9:ab:91:1b:13:07
                Exponent: 65537 (0x10001)
        Attributes:
        Requested Extensions:
            X509v3 Basic Constraints: 
                CA:FALSE
            X509v3 Key Usage: critical
                Certificate Sign, CRL Sign
            X509v3 Subject Alternative Name: 
                URI:undefined, DNS:, DNS:, DNS:, DNS:, DNS:
    Signature Algorithm: sha256WithRSAEncryption
        69:38:eb:82:7b:fe:ea:b8:96:7a:94:ad:d9:d8:58:bc:24:3e:
        8b:16:d0:0a:04:8b:d8:ec:4a:f2:4b:a1:04:9c:75:e8:45:bf:
        4f:8c:9a:bb:6a:d4:95:cd:5b:00:61:6b:c0:6b:10:84:41:63:
        57:72:61:f3:49:39:ed:80:1c:5a:e9:3d:3e:05:8e:89:be:d2:
        a9:38:1c:2a:f2:77:14:9a:41:22:49:55:a8:3f:c0:77:19:21:
        71:e7:da:f4:eb:41:e6:54:a6:b1:14:8e:5b:1a:14:52:91:05:
        d3:09:02:07:e7:2d:c4:c6:2e:87:6c:6a:b2:e0:a4:d0:44:35:
        ec:61
-----BEGIN CERTIFICATE REQUEST-----
MIIBwTCCASoCAQAwNTELMAkGA1UEBhMCRlIxEjAQBgNVBAoMCU5vZGVPUENVQTES
MBAGA1UEAwwJTm9kZU9QQ1VBMIGfMA0GCSqGSIb3DQEBAQUAA4GNADCBiQKBgQC6
MQk9zBssLFBETB6tdhSNLxD+fqsmvy/fjYmyLkC9obCED5gD8N3bySySlrZ8NbFN
Cfg+lfqhP+7jIx1OnqDNvNtKYnWP54m7hTaRQ7/JbSqHml0ofCOVc/QIYYHxYNv2
BeGfagwHVdDEtMQUIX/zedD8zkLbanlAqcmrkRsTBwIDAQABoEwwSgYJKoZIhvcN
AQkOMT0wOzAJBgNVHRMEAjAAMA4GA1UdDwEB/wQEAwIBBjAeBgNVHREEFzAVhgl1
bmRlZmluZWSCAIIAggCCAIIAMA0GCSqGSIb3DQEBCwUAA4GBAGk464J7/uq4lnqU
rdnYWLwkPosW0AoEi9jsSvJLoQScdehFv0+Mmrtq1JXNWwBha8BrEIRBY1dyYfNJ
Oe2AHFrpPT4Fjom+0qk4HCrydxSaQSJJVag/wHcZIXHn2vTrQeZUprEUjlsaFFKR
BdMJAgfnLcTGLodsarLgpNBENexh
-----END CERTIFICATE REQUEST-----
