Certificate Request:
    Data:
        Version: 0 (0x0)
        Subject: C=FR, ST=IDF, L=Paris, O=Local NODE-OPCUA Certificate Authority, CN=NodeOPCUA
        Subject Public Key Info:
            Public Key Algorithm: rsaEncryption
            RSA Public Key: (2048 bit)
                Modulus (2048 bit):
                    00:b1:7c:23:27:da:46:7d:95:cf:ce:43:0b:cf:52:
                    4e:4f:e4:82:cb:6b:18:c9:ed:4b:de:fb:07:89:87:
                    1e:3c:fe:39:bf:dc:9e:51:f1:8a:fe:2e:25:0c:dd:
                    c7:ef:be:3c:c3:42:52:77:3c:4d:cf:9b:7c:14:78:
                    32:52:34:60:1c:cc:cf:2d:1b:f8:b3:56:8d:9e:0f:
                    bc:b9:b2:35:0a:7d:67:e9:2e:fa:1a:30:cd:3b:dd:
                    2d:cd:57:1a:25:af:42:75:e2:60:e3:2e:90:66:fa:
                    7d:45:8c:80:09:fe:69:ae:f6:a7:11:51:53:6d:0f:
                    af:b9:76:23:26:67:9a:0f:93:95:8e:0d:2b:07:15:
                    df:c3:66:73:f5:a7:41:bf:93:2b:7c:50:db:e5:eb:
                    c9:f5:fe:24:bb:c9:96:e8:00:0a:0a:54:38:da:66:
                    ae:25:09:66:17:78:d8:16:39:a1:c1:e8:08:4d:dc:
                    9d:9e:ed:cd:dd:9d:9c:30:98:ea:7d:fd:1c:b6:37:
                    f2:a7:e8:a7:e0:f1:fe:85:df:31:62:ed:e5:37:61:
                    36:b0:41:24:50:ec:ed:db:16:ad:8e:f8:21:7f:9c:
                    a9:06:f0:43:bf:9b:54:60:62:59:18:c6:fe:ca:11:
                    42:45:c9:dd:d2:83:8c:6b:06:58:9c:bc:83:15:47:
                    bf:bb
                Exponent: 65537 (0x10001)
        Attributes:
        Requested Extensions:
            X509v3 Basic Constraints: critical
                CA:FALSE
            X509v3 Key Usage: 
                Digital Signature, Non Repudiation, Key Encipherment, Data Encipherment, Key Agreement
            X509v3 Subject Alternative Name: 
                URI:undefined, DNS:, DNS:
            Netscape Comment: 
                CA Generated by Node-OPCUA Certificate utility using openssl
    Signature Algorithm: sha256WithRSAEncryption
        02:0e:3c:19:6e:f7:d1:71:ec:78:86:57:29:db:33:8e:c5:83:
        e7:4e:51:56:db:aa:f3:cd:f7:6a:ae:c9:f1:d6:ea:7d:f1:40:
        78:76:90:f3:d2:75:96:94:06:7b:e4:a7:29:0c:47:6d:c4:5c:
        4f:8d:e8:db:30:b5:b6:40:2d:5a:02:66:a8:5c:48:59:9f:d9:
        d5:8f:a2:f0:70:b9:18:6a:bd:bd:d0:73:08:8b:92:6a:b1:0d:
        8c:c2:ab:81:d3:d0:46:e6:8f:1b:55:b1:2c:8f:17:55:0d:84:
        15:b9:57:13:46:71:77:d8:9a:3f:b9:88:a4:61:7f:6c:5a:da:
        88:91:fb:e2:27:26:29:00:25:b0:b7:90:30:48:77:70:60:75:
        75:96:34:58:db:22:25:a3:3a:e4:15:1f:3f:71:cb:fa:40:97:
        f7:3c:23:20:30:bf:40:81:99:f9:4b:53:66:be:38:40:1d:92:
        10:c0:3f:87:ba:41:62:d5:9f:7a:79:d7:38:bb:5e:90:9d:dc:
        c0:6d:05:e9:0f:a8:75:50:a5:ee:31:fe:34:79:bc:31:f0:71:
        f3:76:8c:3d:5a:3f:35:a7:75:a4:63:cf:05:fa:b6:4d:18:c8:
        16:9a:2d:a2:25:33:68:af:0e:5d:37:bc:f5:19:88:b9:41:59:
        bb:2a:8c:b0
-----BEGIN CERTIFICATE REQUEST-----
MIIDTDCCAjQCAQAwcDELMAkGA1UEBhMCRlIxDDAKBgNVBAgTA0lERjEOMAwGA1UE
BxMFUGFyaXMxLzAtBgNVBAoTJkxvY2FsIE5PREUtT1BDVUEgQ2VydGlmaWNhdGUg
QXV0aG9yaXR5MRIwEAYDVQQDEwlOb2RlT1BDVUEwggEiMA0GCSqGSIb3DQEBAQUA
A4IBDwAwggEKAoIBAQCxfCMn2kZ9lc/OQwvPUk5P5ILLaxjJ7Uve+weJhx48/jm/
3J5R8Yr+LiUM3cfvvjzDQlJ3PE3Pm3wUeDJSNGAczM8tG/izVo2eD7y5sjUKfWfp
LvoaMM073S3NVxolr0J14mDjLpBm+n1FjIAJ/mmu9qcRUVNtD6+5diMmZ5oPk5WO
DSsHFd/DZnP1p0G/kyt8UNvl68n1/iS7yZboAAoKVDjaZq4lCWYXeNgWOaHB6AhN
3J2e7c3dnZwwmOp9/Ry2N/Kn6Kfg8f6F3zFi7eU3YTawQSRQ7O3bFq2O+CF/nKkG
8EO/m1RgYlkYxv7KEUJFyd3Sg4xrBlicvIMVR7+7AgMBAAGggZYwgZMGCSqGSIb3
DQEJDjGBhTCBgjAMBgNVHRMBAf8EAjAAMAsGA1UdDwQEAwID+DAYBgNVHREEETAP
hgl1bmRlZmluZWSCAIIAMEsGCWCGSAGG+EIBDQQ+FjxDQSBHZW5lcmF0ZWQgYnkg
Tm9kZS1PUENVQSBDZXJ0aWZpY2F0ZSB1dGlsaXR5IHVzaW5nIG9wZW5zc2wwDQYJ
KoZIhvcNAQELBQADggEBAAIOPBlu99Fx7HiGVynbM47Fg+dOUVbbqvPN92quyfHW
6n3xQHh2kPPSdZaUBnvkpykMR23EXE+N6NswtbZALVoCZqhcSFmf2dWPovBwuRhq
vb3QcwiLkmqxDYzCq4HT0EbmjxtVsSyPF1UNhBW5VxNGcXfYmj+5iKRhf2xa2oiR
++InJikAJbC3kDBId3BgdXWWNFjbIiWjOuQVHz9xy/pAl/c8IyAwv0CBmflLU2a+
OEAdkhDAP4e6QWLVn3p51zi7XpCd3MBtBekPqHVQpe4x/jR5vDHwcfN2jD1aPzWn
daRjzwX6tk0YyBaaLaIlM2ivDl03vPUZiLlBWbsqjLA=
-----END CERTIFICATE REQUEST-----
