Certificate:
    Data:
        Version: 1 (0x0)
        Serial Number:
            aa:45:cd:f1:62:54:d9:2b
        Signature Algorithm: itu-t
        Issuer: C=FR, ST=IDF, L=Paris, O=Local NODE-OPCUA Certificate Authority, CN=NodeOPCUA
        Validity
            Not Before: Aug 25 13:26:02 2016 GMT
            Not After : Aug 23 13:26:02 2026 GMT
        Subject: C=FR, ST=IDF, L=Paris, O=Local NODE-OPCUA Certificate Authority, CN=NodeOPCUA
        Subject Public Key Info:
            Public Key Algorithm: rsaEncryption
            RSA Public Key: (2048 bit)
                Modulus (2048 bit):
                    00:b1:7c:23:27:da:46:7d:95:cf:ce:43:0b:cf:52:
                    4e:4f:e4:82:cb:6b:18:c9:ed:4b:de:fb:07:89:87:
                    1e:3c:fe:39:bf:dc:9e:51:f1:8a:fe:2e:25:0c:dd:
                    c7:ef:be:3c:c3:42:52:77:3c:4d:cf:9b:7c:14:78:
                    32:52:34:60:1c:cc:cf:2d:1b:f8:b3:56:8d:9e:0f:
                    bc:b9:b2:35:0a:7d:67:e9:2e:fa:1a:30:cd:3b:dd:
                    2d:cd:57:1a:25:af:42:75:e2:60:e3:2e:90:66:fa:
                    7d:45:8c:80:09:fe:69:ae:f6:a7:11:51:53:6d:0f:
                    af:b9:76:23:26:67:9a:0f:93:95:8e:0d:2b:07:15:
                    df:c3:66:73:f5:a7:41:bf:93:2b:7c:50:db:e5:eb:
                    c9:f5:fe:24:bb:c9:96:e8:00:0a:0a:54:38:da:66:
                    ae:25:09:66:17:78:d8:16:39:a1:c1:e8:08:4d:dc:
                    9d:9e:ed:cd:dd:9d:9c:30:98:ea:7d:fd:1c:b6:37:
                    f2:a7:e8:a7:e0:f1:fe:85:df:31:62:ed:e5:37:61:
                    36:b0:41:24:50:ec:ed:db:16:ad:8e:f8:21:7f:9c:
                    a9:06:f0:43:bf:9b:54:60:62:59:18:c6:fe:ca:11:
                    42:45:c9:dd:d2:83:8c:6b:06:58:9c:bc:83:15:47:
                    bf:bb
                Exponent: 65537 (0x10001)
    Signature Algorithm: itu-t
-----BEGIN CERTIFICATE-----
MIIE1DCCA7ygAwIBAgIJAKpFzfFiVNkrMA0GCSqGSIb3DQEBCwUAMHAxCzAJBgNV
BAYTAkZSMQwwCgYDVQQIEwNJREYxDjAMBgNVBAcTBVBhcmlzMS8wLQYDVQQKEyZM
b2NhbCBOT0RFLU9QQ1VBIENlcnRpZmljYXRlIEF1dGhvcml0eTESMBAGA1UEAxMJ
Tm9kZU9QQ1VBMB4XDTE2MDgyNTEzMjYwMloXDTI2MDgyMzEzMjYwMlowcDELMAkG
A1UEBhMCRlIxDDAKBgNVBAgTA0lERjEOMAwGA1UEBxMFUGFyaXMxLzAtBgNVBAoT
JkxvY2FsIE5PREUtT1BDVUEgQ2VydGlmaWNhdGUgQXV0aG9yaXR5MRIwEAYDVQQD
EwlOb2RlT1BDVUEwggEiMA0GCSqGSIb3DQEBAQUAA4IBDwAwggEKAoIBAQCxfCMn
2kZ9lc/OQwvPUk5P5ILLaxjJ7Uve+weJhx48/jm/3J5R8Yr+LiUM3cfvvjzDQlJ3
PE3Pm3wUeDJSNGAczM8tG/izVo2eD7y5sjUKfWfpLvoaMM073S3NVxolr0J14mDj
LpBm+n1FjIAJ/mmu9qcRUVNtD6+5diMmZ5oPk5WODSsHFd/DZnP1p0G/kyt8UNvl
68n1/iS7yZboAAoKVDjaZq4lCWYXeNgWOaHB6AhN3J2e7c3dnZwwmOp9/Ry2N/Kn
6Kfg8f6F3zFi7eU3YTawQSRQ7O3bFq2O+CF/nKkG8EO/m1RgYlkYxv7KEUJFyd3S
g4xrBlicvIMVR7+7AgMBAAGjggFvMIIBazAdBgNVHQ4EFgQUgDOjVCqUEa6UKDUB
hO/jYDcvW5QwgaIGA1UdIwSBmjCBl4AUgDOjVCqUEa6UKDUBhO/jYDcvW5ShdKRy
MHAxCzAJBgNVBAYTAkZSMQwwCgYDVQQIEwNJREYxDjAMBgNVBAcTBVBhcmlzMS8w
LQYDVQQKEyZMb2NhbCBOT0RFLU9QQ1VBIENlcnRpZmljYXRlIEF1dGhvcml0eTES
MBAGA1UEAxMJTm9kZU9QQ1VBggkAqkXN8WJU2SswDAYDVR0TBAUwAwEB/zAOBgNV
HQ8BAf8EBAMCAQYwVwYJYIZIAYb4QgENBEoWSENBIENlcnRpZmljYXRlIGdlbmVy
YXRlZCBieSBOb2RlLU9QQ1VBIENlcnRpZmljYXRlIHV0aWxpdHkgdXNpbmcgb3Bl
bnNzbDAuBgNVHR8EJzAlMCOgIaAfhh1odHRwOi8vbG9jYWxob3N0Ojg5MDAvY3Js
LnBlbTANBgkqhkiG9w0BAQsFAAOCAQEATF8I83NQuSfTO7MsvFir0qz91wGZ+hjU
DYF1l198bmIFyG5UajaRj+7ApbO4SDvzLAwK1xtX6xgvIYBBA8TKuM8u893YvvWd
+dioX6AgKTE/LZk6EueyL4DtGBAtbLOAaxe/l7tWwgfHRjL/Ni9/Q1BbPOg1O5tc
jGAw7ZPcN+W6R+t7XnfWd8pFtRaPsILg08nBvseaumOgKi4FW2jvRp7WxeCz4Pio
eAVuWpEerfZ0JqZ6mbgVTjLd/wtNHAsR3344SoIvoENZhugnP4on4RSJ2XqgFfeU
vpKXy9gsvqOI/EMHuGbdsrsbSfCR+IZxeKIcP2lH0phzyJWo3lbuHw==
-----END CERTIFICATE-----
